target datalayout = "e-m:e-p270:32:32-p271:32:32-p272:64:64-i64:64-i128:128-f80:128-n8:16:32:64-S128"
target triple = "x86_64-pc-linux-gnu"

%class.rational = type { %class.mpq }
%class.mpq = type { %class.mpz, %class.mpz }
%class.mpz = type { i32, i8, ptr }
%class.svector.9 = type { %class.vector.10 }
%class.vector.10 = type { ptr }
%"class.dd::pdd_manager" = type { %class.svector, %class.vector.0, %class.ptr_hashtable, %class.hashtable, %class.hashtable.3, %class.map, %class.svector.9, ptr, %class.svector.9, %class.svector.9, %class.svector.9, %class.svector.9, %class.small_object_allocator, %class.svector.9, i32, %class.svector.9, %class.svector.9, %class.svector.11, i8, i8, i32, i32, %class.svector.9, %class.svector.9, %class.rational, %class.rational, i32, %class.rational, %class.svector.9, i32, %class.svector.9, %class.svector.9, %class.rational, %class.rational }
%class.svector = type { %class.vector }
%class.vector = type { ptr }
%class.vector.0 = type { ptr }
%class.ptr_hashtable = type { %class.core_hashtable.base, [4 x i8] }
%class.core_hashtable.base = type <{ ptr, i32, i32, i32 }>
%class.hashtable = type { %class.core_hashtable.base.2, [4 x i8] }
%class.core_hashtable.base.2 = type <{ ptr, i32, i32, i32 }>
%class.hashtable.3 = type { %class.core_hashtable.base.5, [4 x i8] }
%class.core_hashtable.base.5 = type <{ ptr, i32, i32, i32 }>
%class.map = type { %class.table2map }
%class.table2map = type { %class.core_hashtable.7 }
%class.core_hashtable.7 = type <{ ptr, i32, i32, i32, [4 x i8] }>
%class.small_object_allocator = type { [32 x ptr], [32 x ptr], i64 }
%class.svector.11 = type { %class.vector.12 }
%class.vector.12 = type { ptr }
%"struct.dd::pdd_manager::op_entry" = type { i32, i32, i32, i32 }

; Function Attrs: mustprogress nounwind uwtable
define linkonce_odr hidden void @_ZN2dd11pdd_manager8op_entryC2Ejjj(ptr noundef nonnull align 4 dereferenceable(16) %0, i32 noundef %1, i32 noundef %2, i32 noundef %3) unnamed_addr #5 comdat align 2 {
  %5 = alloca ptr, align 8
  %6 = alloca i32, align 4
  %7 = alloca i32, align 4
  %8 = alloca i32, align 4
  store ptr %0, ptr %5, align 8, !tbaa !110
  store i32 %1, ptr %6, align 4, !tbaa !8
  store i32 %2, ptr %7, align 4, !tbaa !8
  store i32 %3, ptr %8, align 4, !tbaa !8
  %9 = load ptr, ptr %5, align 8
  %10 = getelementptr inbounds nuw %"struct.dd::pdd_manager::op_entry", ptr %9, i32 0, i32 0
  %11 = load i32, ptr %6, align 4, !tbaa !8
  store i32 %11, ptr %10, align 4, !tbaa !189
  %12 = getelementptr inbounds nuw %"struct.dd::pdd_manager::op_entry", ptr %9, i32 0, i32 1
  %13 = load i32, ptr %7, align 4, !tbaa !8
  store i32 %13, ptr %12, align 4, !tbaa !190
  %14 = getelementptr inbounds nuw %"struct.dd::pdd_manager::op_entry", ptr %9, i32 0, i32 2
  %15 = load i32, ptr %8, align 4, !tbaa !8
  store i32 %15, ptr %14, align 4, !tbaa !191
  %16 = getelementptr inbounds nuw %"struct.dd::pdd_manager::op_entry", ptr %9, i32 0, i32 3
  store i32 0, ptr %16, align 4, !tbaa !183
  ret void
}

; Function Attrs: mustprogress uwtable
define hidden noundef ptr @_ZN2dd11pdd_manager9pop_entryEjjj(ptr noundef nonnull align 8 dereferenceable(952) %0, i32 noundef %1, i32 noundef %2, i32 noundef %3) #4 align 2 {
  %5 = alloca ptr, align 8
  %6 = alloca i32, align 4
  %7 = alloca i32, align 4
  %8 = alloca i32, align 4
  %9 = alloca ptr, align 8
  %10 = alloca ptr, align 8
  store ptr %0, ptr %5, align 8, !tbaa !3
  store i32 %1, ptr %6, align 4, !tbaa !8
  store i32 %2, ptr %7, align 4, !tbaa !8
  store i32 %3, ptr %8, align 4, !tbaa !8
  %11 = load ptr, ptr %5, align 8
  call void @llvm.lifetime.start.p0(i64 8, ptr %9) #3
  store ptr null, ptr %9, align 8, !tbaa !110
  %12 = getelementptr inbounds nuw %"class.dd::pdd_manager", ptr %11, i32 0, i32 7
  %13 = load ptr, ptr %12, align 8, !tbaa !46
  %14 = icmp ne ptr %13, null
  br i1 %14, label %15, label %28

15:                                               ; preds = %4
  %16 = getelementptr inbounds nuw %"class.dd::pdd_manager", ptr %11, i32 0, i32 7
  %17 = load ptr, ptr %16, align 8, !tbaa !46
  store ptr %17, ptr %9, align 8, !tbaa !110
  %18 = getelementptr inbounds nuw %"class.dd::pdd_manager", ptr %11, i32 0, i32 7
  store ptr null, ptr %18, align 8, !tbaa !46
  %19 = load i32, ptr %6, align 4, !tbaa !8
  %20 = load ptr, ptr %9, align 8, !tbaa !110
  %21 = getelementptr inbounds nuw %"struct.dd::pdd_manager::op_entry", ptr %20, i32 0, i32 0
  store i32 %19, ptr %21, align 4, !tbaa !189
  %22 = load i32, ptr %7, align 4, !tbaa !8
  %23 = load ptr, ptr %9, align 8, !tbaa !110
  %24 = getelementptr inbounds nuw %"struct.dd::pdd_manager::op_entry", ptr %23, i32 0, i32 1
  store i32 %22, ptr %24, align 4, !tbaa !190
  %25 = load i32, ptr %8, align 4, !tbaa !8
  %26 = load ptr, ptr %9, align 8, !tbaa !110
  %27 = getelementptr inbounds nuw %"struct.dd::pdd_manager::op_entry", ptr %26, i32 0, i32 2
  store i32 %25, ptr %27, align 4, !tbaa !191
  br label %35

28:                                               ; preds = %4
  call void @llvm.lifetime.start.p0(i64 8, ptr %10) #3
  %29 = getelementptr inbounds nuw %"class.dd::pdd_manager", ptr %11, i32 0, i32 12
  %30 = call noundef ptr @_ZN22small_object_allocator8allocateEm(ptr noundef nonnull align 8 dereferenceable(520) %29, i64 noundef 16)
  store ptr %30, ptr %10, align 8, !tbaa !172
  %31 = load ptr, ptr %10, align 8, !tbaa !172
  %32 = load i32, ptr %6, align 4, !tbaa !8
  %33 = load i32, ptr %7, align 4, !tbaa !8
  %34 = load i32, ptr %8, align 4, !tbaa !8
  call void @_ZN2dd11pdd_manager8op_entryC2Ejjj(ptr noundef nonnull align 4 dereferenceable(16) %31, i32 noundef %32, i32 noundef %33, i32 noundef %34)
  store ptr %31, ptr %9, align 8, !tbaa !110
  call void @llvm.lifetime.end.p0(i64 8, ptr %10) #3
  br label %35

35:                                               ; preds = %28, %15
  %36 = load ptr, ptr %9, align 8, !tbaa !110
  %37 = getelementptr inbounds nuw %"struct.dd::pdd_manager::op_entry", ptr %36, i32 0, i32 3
  store i32 -1, ptr %37, align 4, !tbaa !183
  %38 = load ptr, ptr %9, align 8, !tbaa !110
  call void @llvm.lifetime.end.p0(i64 8, ptr %9) #3
  ret ptr %38
}