; Function Attrs: mustprogress uwtable
define hidden noundef ptr @_ZN2dd11pdd_manager9pop_entryEjjj(ptr noundef nonnull align 8 dereferenceable(952) %0, i32 noundef %1, i32 noundef %2, i32 noundef %3) local_unnamed_addr #3 align 2 {
  %5 = getelementptr inbounds nuw i8, ptr %0, i64 120
  %6 = load ptr, ptr %5, align 8, !tbaa !76
  %.not = icmp eq ptr %6, null
  br i1 %.not, label %10, label %7

7:                                                ; preds = %4
  store ptr null, ptr %5, align 8, !tbaa !76
  store i32 %1, ptr %6, align 4, !tbaa !213
  %8 = getelementptr inbounds nuw i8, ptr %6, i64 4
  store i32 %2, ptr %8, align 4, !tbaa !215
  %9 = getelementptr inbounds nuw i8, ptr %6, i64 8
  store i32 %3, ptr %9, align 4, !tbaa !216
  br label %16

10:                                               ; preds = %4
  %11 = getelementptr inbounds nuw i8, ptr %0, i64 160
  %12 = tail call noundef ptr @_ZN22small_object_allocator8allocateEm(ptr noundef nonnull align 8 dereferenceable(520) %11, i64 noundef 16)
  store i32 %1, ptr %12, align 4, !tbaa !213
  %13 = getelementptr inbounds nuw i8, ptr %12, i64 4
  store i32 %2, ptr %13, align 4, !tbaa !215
  %14 = getelementptr inbounds nuw i8, ptr %12, i64 8
  store i32 %3, ptr %14, align 4, !tbaa !216
  %15 = getelementptr inbounds nuw i8, ptr %12, i64 12
  store i32 0, ptr %15, align 4, !tbaa !217
  br label %16

16:                                               ; preds = %10, %7
  %.0 = phi ptr [ %6, %7 ], [ %12, %10 ]
  %17 = getelementptr inbounds nuw i8, ptr %.0, i64 12
  store i32 -1, ptr %17, align 4, !tbaa !217
  ret ptr %.0
}